; ModuleID = '23/873.c'
source_filename = "23/873.c"
target datalayout = "e-m:e-p270:32:32-p271:32:32-p272:64:64-i64:64-f80:128-n8:16:32:64-S128"
target triple = "x86_64-pc-linux-gnu"

@.str = private unnamed_addr constant [3 x i8] c"%c\00", align 1
@.str.1 = private unnamed_addr constant [2 x i8] c" \00", align 1

; Function Attrs: noinline nounwind uwtable
define dso_local void @main() #0 {
  %1 = alloca i32, align 4
  %2 = alloca i32, align 4
  %3 = alloca i32, align 4
  %4 = alloca i32, align 4
  %5 = alloca [101 x i8], align 16
  %6 = alloca i8*, align 8
  store i32 0, i32* %4, align 4
  %7 = getelementptr inbounds [101 x i8], [101 x i8]* %5, i64 0, i64 0
  %8 = call i32 (i8*, ...) bitcast (i32 (...)* @gets to i32 (i8*, ...)*)(i8* %7)
  %9 = getelementptr inbounds [101 x i8], [101 x i8]* %5, i64 0, i64 0
  %10 = call i64 @strlen(i8* %9) #3
  %11 = trunc i64 %10 to i32
  store i32 %11, i32* %1, align 4
  %12 = getelementptr inbounds [101 x i8], [101 x i8]* %5, i64 0, i64 0
  %13 = load i32, i32* %1, align 4
  %14 = sext i32 %13 to i64
  %15 = getelementptr inbounds i8, i8* %12, i64 %14
  %16 = getelementptr inbounds i8, i8* %15, i64 -1
  store i8* %16, i8** %6, align 8
  store i32 0, i32* %2, align 4
  br label %17

17:                                               ; preds = %69, %0
  %18 = load i32, i32* %2, align 4
  %19 = load i32, i32* %1, align 4
  %20 = icmp slt i32 %18, %19
  br i1 %20, label %21, label %74

21:                                               ; preds = %17
  %22 = load i8*, i8** %6, align 8
  %23 = load i8, i8* %22, align 1
  %24 = sext i8 %23 to i32
  %25 = icmp eq i32 %24, 32
  br i1 %25, label %26, label %44

26:                                               ; preds = %21
  store i32 1, i32* %3, align 4
  br label %27

27:                                               ; preds = %39, %26
  %28 = load i32, i32* %3, align 4
  %29 = load i32, i32* %4, align 4
  %30 = icmp sle i32 %28, %29
  br i1 %30, label %31, label %42

31:                                               ; preds = %27
  %32 = load i8*, i8** %6, align 8
  %33 = load i32, i32* %3, align 4
  %34 = sext i32 %33 to i64
  %35 = getelementptr inbounds i8, i8* %32, i64 %34
  %36 = load i8, i8* %35, align 1
  %37 = sext i8 %36 to i32
  %38 = call i32 (i8*, ...) @printf(i8* getelementptr inbounds ([3 x i8], [3 x i8]* @.str, i64 0, i64 0), i32 %37)
  br label %39

39:                                               ; preds = %31
  %40 = load i32, i32* %3, align 4
  %41 = add nsw i32 %40, 1
  store i32 %41, i32* %3, align 4
  br label %27

42:                                               ; preds = %27
  store i32 0, i32* %4, align 4
  %43 = call i32 (i8*, ...) @printf(i8* getelementptr inbounds ([2 x i8], [2 x i8]* @.str.1, i64 0, i64 0))
  br label %68

44:                                               ; preds = %21
  %45 = load i32, i32* %4, align 4
  %46 = add nsw i32 %45, 1
  store i32 %46, i32* %4, align 4
  %47 = load i8*, i8** %6, align 8
  %48 = getelementptr inbounds [101 x i8], [101 x i8]* %5, i64 0, i64 0
  %49 = icmp eq i8* %47, %48
  br i1 %49, label %50, label %67

50:                                               ; preds = %44
  store i32 0, i32* %3, align 4
  br label %51

51:                                               ; preds = %63, %50
  %52 = load i32, i32* %3, align 4
  %53 = load i32, i32* %4, align 4
  %54 = icmp slt i32 %52, %53
  br i1 %54, label %55, label %66

55:                                               ; preds = %51
  %56 = load i8*, i8** %6, align 8
  %57 = load i32, i32* %3, align 4
  %58 = sext i32 %57 to i64
  %59 = getelementptr inbounds i8, i8* %56, i64 %58
  %60 = load i8, i8* %59, align 1
  %61 = sext i8 %60 to i32
  %62 = call i32 (i8*, ...) @printf(i8* getelementptr inbounds ([3 x i8], [3 x i8]* @.str, i64 0, i64 0), i32 %61)
  br label %63

63:                                               ; preds = %55
  %64 = load i32, i32* %3, align 4
  %65 = add nsw i32 %64, 1
  store i32 %65, i32* %3, align 4
  br label %51

66:                                               ; preds = %51
  br label %67

67:                                               ; preds = %66, %44
  br label %68

68:                                               ; preds = %67, %42
  br label %69

69:                                               ; preds = %68
  %70 = load i32, i32* %2, align 4
  %71 = add nsw i32 %70, 1
  store i32 %71, i32* %2, align 4
  %72 = load i8*, i8** %6, align 8
  %73 = getelementptr inbounds i8, i8* %72, i32 -1
  store i8* %73, i8** %6, align 8
  br label %17

74:                                               ; preds = %17
  ret void
}

declare dso_local i32 @gets(...) #1

; Function Attrs: nounwind readonly
declare dso_local i64 @strlen(i8*) #2

declare dso_local i32 @printf(i8*, ...) #1


!llvm.module.flags = !{!0}
!llvm.ident = !{!1}

!0 = !{i32 1, !"wchar_size", i32 4}
!1 = !{!"clang version 10.0.0-4ubuntu1 "}
