; ModuleID = 'source-C-CXX/22/873.c'
source_filename = "source-C-CXX/22/873.c"
target datalayout = "e-m:e-p270:32:32-p271:32:32-p272:64:64-i64:64-f80:128-n8:16:32:64-S128"
target triple = "x86_64-pc-linux-gnu"

; Function Attrs: nounwind sspstrong uwtable
define dso_local void @main() local_unnamed_addr #0 {
  %1 = alloca [101 x i8], align 16
  %2 = getelementptr inbounds [101 x i8], [101 x i8]* %1, i64 0, i64 0
  call void @llvm.lifetime.start.p0i8(i64 101, i8* nonnull %2) #5
  %3 = call i32 (i8*, ...) bitcast (i32 (...)* @gets to i32 (i8*, ...)*)(i8* nonnull %2) #5
  %4 = call i64 @strlen(i8* noundef nonnull %2) #6
  %5 = trunc i64 %4 to i32
  %6 = icmp sgt i32 %5, 0
  br i1 %6, label %7, label %52

7:                                                ; preds = %0
  %8 = shl i64 %4, 32
  %9 = ashr exact i64 %8, 32
  %10 = getelementptr inbounds [101 x i8], [101 x i8]* %1, i64 0, i64 %9
  br label %11

11:                                               ; preds = %7, %48
  %12 = phi i8* [ %15, %48 ], [ %10, %7 ]
  %13 = phi i32 [ %49, %48 ], [ 0, %7 ]
  %14 = phi i32 [ %50, %48 ], [ 0, %7 ]
  %15 = getelementptr inbounds i8, i8* %12, i64 -1
  %16 = load i8, i8* %15, align 1, !tbaa !5
  %17 = icmp eq i8 %16, 32
  br i1 %17, label %18, label %33

18:                                               ; preds = %11
  %19 = icmp slt i32 %13, 1
  br i1 %19, label %31, label %20

20:                                               ; preds = %18
  %21 = add nuw i32 %13, 1
  %22 = zext i32 %21 to i64
  br label %23

23:                                               ; preds = %20, %23
  %24 = phi i64 [ 1, %20 ], [ %29, %23 ]
  %25 = getelementptr inbounds i8, i8* %15, i64 %24
  %26 = load i8, i8* %25, align 1, !tbaa !5
  %27 = sext i8 %26 to i32
  %28 = call i32 @putchar(i32 %27)
  %29 = add nuw nsw i64 %24, 1
  %30 = icmp eq i64 %29, %22
  br i1 %30, label %31, label %23, !llvm.loop !8

31:                                               ; preds = %23, %18
  %32 = call i32 @putchar(i32 32)
  br label %48

33:                                               ; preds = %11
  %34 = add i32 %13, 1
  %35 = icmp ne i8* %15, %2
  %36 = icmp slt i32 %13, 0
  %37 = select i1 %35, i1 true, i1 %36
  br i1 %37, label %48, label %38

38:                                               ; preds = %33
  %39 = zext i32 %34 to i64
  br label %40

40:                                               ; preds = %38, %40
  %41 = phi i64 [ 0, %38 ], [ %46, %40 ]
  %42 = getelementptr inbounds [101 x i8], [101 x i8]* %1, i64 0, i64 %41
  %43 = load i8, i8* %42, align 1, !tbaa !5
  %44 = sext i8 %43 to i32
  %45 = call i32 @putchar(i32 %44)
  %46 = add nuw nsw i64 %41, 1
  %47 = icmp eq i64 %46, %39
  br i1 %47, label %48, label %40, !llvm.loop !10

48:                                               ; preds = %40, %31, %33
  %49 = phi i32 [ 0, %31 ], [ %34, %33 ], [ %34, %40 ]
  %50 = add nuw nsw i32 %14, 1
  %51 = icmp eq i32 %50, %5
  br i1 %51, label %52, label %11, !llvm.loop !11

52:                                               ; preds = %48, %0
  call void @llvm.lifetime.end.p0i8(i64 101, i8* nonnull %2) #5
  ret void
}

; Function Attrs: argmemonly mustprogress nofree nosync nounwind willreturn
declare void @llvm.lifetime.start.p0i8(i64 immarg, i8* nocapture) #1

declare i32 @gets(...) local_unnamed_addr #2

; Function Attrs: argmemonly mustprogress nofree nounwind readonly willreturn
declare i64 @strlen(i8* nocapture) local_unnamed_addr #3

; Function Attrs: argmemonly mustprogress nofree nosync nounwind willreturn
declare void @llvm.lifetime.end.p0i8(i64 immarg, i8* nocapture) #1

; Function Attrs: nofree nounwind
declare noundef i32 @putchar(i32 noundef) local_unnamed_addr #4


!llvm.module.flags = !{!0, !1, !2, !3}
!llvm.ident = !{!4}

!0 = !{i32 1, !"wchar_size", i32 4}
!1 = !{i32 7, !"PIC Level", i32 2}
!2 = !{i32 7, !"PIE Level", i32 2}
!3 = !{i32 7, !"uwtable", i32 1}
!4 = !{!"clang version 13.0.0"}
!5 = !{!6, !6, i64 0}
!6 = !{!"omnipotent char", !7, i64 0}
!7 = !{!"Simple C/C++ TBAA"}
!8 = distinct !{!8, !9}
!9 = !{!"llvm.loop.mustprogress"}
!10 = distinct !{!10, !9}
!11 = distinct !{!11, !9}
